; Function Attrs: nounwind uwtable
define hidden ptr @ASN1_item_d2i_fp(ptr noundef %0, ptr noundef %1, ptr noundef %2) local_unnamed_addr #0 {
  %4 = alloca ptr, align 8
  %5 = alloca ptr, align 8
  %6 = tail call ptr @BIO_s_file() #4
  %7 = tail call ptr @BIO_new(ptr noundef %6) #4
  %8 = icmp eq ptr %7, null
  br i1 %8, label %9, label %10

9:                                                ; preds = %3
  tail call void @ERR_put_error(i32 noundef 12, i32 noundef 0, i32 noundef 7, ptr noundef nonnull @.str, i32 noundef 133) #4
  br label %21

10:                                               ; preds = %3
  %11 = tail call i32 @BIO_set_fp(ptr noundef nonnull %7, ptr noundef %1, i32 noundef 0) #4
  call void @llvm.lifetime.start.p0(i64 8, ptr nonnull %4) #4
  store ptr null, ptr %4, align 8, !tbaa !6
  call void @llvm.lifetime.start.p0(i64 8, ptr nonnull %5) #4
  %12 = call fastcc i32 @asn1_d2i_read_bio(ptr noundef nonnull %7, ptr noundef %4)
  %13 = icmp slt i32 %12, 0
  %.pre.i = load ptr, ptr %4, align 8, !tbaa !6
  br i1 %13, label %18, label %.thread.i

.thread.i:                                        ; preds = %10
  %14 = getelementptr inbounds nuw i8, ptr %.pre.i, i64 8
  %15 = load ptr, ptr %14, align 8, !tbaa !11
  store ptr %15, ptr %5, align 8, !tbaa !15
  %16 = zext nneg i32 %12 to i64
  %17 = call ptr @ASN1_item_d2i(ptr noundef %2, ptr noundef nonnull %5, i64 noundef %16, ptr noundef %0) #4
  br label %19

18:                                               ; preds = %10
  %.not.i = icmp eq ptr %.pre.i, null
  br i1 %.not.i, label %ASN1_item_d2i_bio.exit, label %19

19:                                               ; preds = %18, %.thread.i
  %.09.i = phi ptr [ %17, %.thread.i ], [ null, %18 ]
  call void @BUF_MEM_free(ptr noundef nonnull %.pre.i) #4
  br label %ASN1_item_d2i_bio.exit

ASN1_item_d2i_bio.exit:                           ; preds = %18, %19
  %.010.i = phi ptr [ %.09.i, %19 ], [ null, %18 ]
  call void @llvm.lifetime.end.p0(i64 8, ptr nonnull %5) #4
  call void @llvm.lifetime.end.p0(i64 8, ptr nonnull %4) #4
  %20 = call i32 @BIO_free(ptr noundef nonnull %7) #4
  br label %21

21:                                               ; preds = %ASN1_item_d2i_bio.exit, %9
  %.0 = phi ptr [ null, %9 ], [ %.010.i, %ASN1_item_d2i_bio.exit ]
  ret ptr %.0
}